target datalayout = "e-m:e-p270:32:32-p271:32:32-p272:64:64-i64:64-i128:128-f80:128-n8:16:32:64-S128"
target triple = "x86_64-pc-linux-gnu"

%struct.BEValue = type { i8, i32, ptr, ptr, ptr }
%struct.GenContext_ = type { i8, ptr, ptr, ptr, ptr, ptr, ptr, ptr, ptr, ptr, ptr, ptr, ptr, ptr, ptr, ptr, ptr, ptr, ptr, ptr, ptr, ptr, ptr, ptr, ptr, ptr, ptr, ptr, ptr, ptr, ptr, ptr, ptr, %struct.anon.85, i32, i32, %struct.DebugContext, ptr, ptr, ptr, %struct.BEValue, i8, %union.SourceSpan, ptr, ptr, ptr, ptr }
%struct.anon.85 = type { ptr, ptr, ptr }
%struct.DebugContext = type { i16, ptr, ptr, %struct.DebugFile_, ptr, ptr, ptr, ptr }
%struct.DebugFile_ = type { i16, ptr }
%union.SourceSpan = type { i64 }
%struct.Type_ = type { i32, ptr, ptr, ptr, %union.anon.97, ptr, ptr, %union.anon.99 }
%union.anon.97 = type { ptr }
%union.anon.99 = type { %struct.TypeFunction }
%struct.TypeFunction = type { ptr, ptr, ptr }

@.str.3 = private unnamed_addr constant [1 x i8] zeroinitializer, align 1
@type_usz = external global ptr, align 8
@type_typeid = external global ptr, align 8
@type_anyptr = external global ptr, align 8

; Function Attrs: nounwind uwtable
define internal zeroext i1 @llvm_value_is_addr(ptr noundef %0) #0 {
  %2 = alloca ptr, align 8
  store ptr %0, ptr %2, align 8
  %3 = load ptr, ptr %2, align 8
  %4 = load i8, ptr %3, align 8
  %5 = and i8 %4, 31
  %6 = zext i8 %5 to i32
  %7 = icmp eq i32 %6, 1
  br i1 %7, label %14, label %8

8:                                                ; preds = %1
  %9 = load ptr, ptr %2, align 8
  %10 = load i8, ptr %9, align 8
  %11 = and i8 %10, 31
  %12 = zext i8 %11 to i32
  %13 = icmp eq i32 %12, 2
  br label %14

14:                                               ; preds = %8, %1
  %15 = phi i1 [ true, %1 ], [ %13, %8 ]
  ret i1 %15
}

; Function Attrs: nounwind uwtable
define internal void @llvm_emit_type_from_any(ptr noundef %0, ptr noundef %1) #0 {
  %3 = alloca ptr, align 8
  %4 = alloca i32, align 4
  %5 = alloca ptr, align 8
  %6 = alloca ptr, align 8
  %7 = alloca i64, align 8
  %8 = alloca ptr, align 8
  %9 = alloca ptr, align 8
  %10 = alloca ptr, align 8
  %11 = alloca i32, align 4
  %12 = alloca ptr, align 8
  %13 = alloca ptr, align 8
  %14 = alloca i32, align 4
  %15 = alloca ptr, align 8
  store ptr %0, ptr %12, align 8
  store ptr %1, ptr %13, align 8
  %16 = load ptr, ptr %13, align 8
  %17 = call zeroext i1 @llvm_value_is_addr(ptr noundef %16)
  br i1 %17, label %18, label %34

18:                                               ; preds = %2
  store i32 0, ptr %14, align 4
  %19 = load ptr, ptr %12, align 8
  %20 = load ptr, ptr %13, align 8
  %21 = getelementptr inbounds %struct.BEValue, ptr %20, i32 0, i32 3
  %22 = load ptr, ptr %21, align 8
  %23 = load ptr, ptr %12, align 8
  %24 = load ptr, ptr @type_anyptr, align 8
  %25 = call ptr @llvm_get_type(ptr noundef %23, ptr noundef %24)
  %26 = load ptr, ptr %13, align 8
  %27 = getelementptr inbounds %struct.BEValue, ptr %26, i32 0, i32 1
  %28 = load i32, ptr %27, align 4
  %29 = call ptr @llvm_emit_struct_gep_raw(ptr noundef %19, ptr noundef %22, ptr noundef %25, i32 noundef 1, i32 noundef %28, ptr noundef %14)
  store ptr %29, ptr %15, align 8
  %30 = load ptr, ptr %13, align 8
  %31 = load ptr, ptr %15, align 8
  %32 = load ptr, ptr @type_typeid, align 8
  %33 = load i32, ptr %14, align 4
  call void @llvm_value_set_address(ptr noundef %30, ptr noundef %31, ptr noundef %32, i32 noundef %33)
  br label %90

34:                                               ; preds = %2
  %35 = load ptr, ptr %13, align 8
  %36 = load ptr, ptr %12, align 8
  %37 = load ptr, ptr %13, align 8
  %38 = getelementptr inbounds %struct.BEValue, ptr %37, i32 0, i32 3
  %39 = load ptr, ptr %38, align 8
  store ptr %36, ptr %9, align 8
  store ptr %39, ptr %10, align 8
  store i32 1, ptr %11, align 4
  %40 = load ptr, ptr %10, align 8
  %41 = call ptr @LLVMTypeOf(ptr noundef %40) #8
  %42 = call i32 @LLVMGetTypeKind(ptr noundef %41) #8
  %43 = icmp eq i32 %42, 13
  br i1 %43, label %44, label %80

44:                                               ; preds = %34
  %45 = load ptr, ptr %9, align 8
  %46 = getelementptr inbounds %struct.GenContext_, ptr %45, i32 0, i32 8
  %47 = load ptr, ptr %46, align 8
  %48 = load ptr, ptr %10, align 8
  %49 = load ptr, ptr %9, align 8
  %50 = load ptr, ptr @type_usz, align 8
  %51 = load i32, ptr %11, align 4
  %52 = zext i32 %51 to i64
  store ptr %49, ptr %5, align 8
  store ptr %50, ptr %6, align 8
  store i64 %52, ptr %7, align 8
  %53 = load ptr, ptr %6, align 8
  %54 = call ptr @type_lowering(ptr noundef %53)
  store ptr %54, ptr %6, align 8
  %55 = load ptr, ptr %5, align 8
  %56 = load ptr, ptr %6, align 8
  %57 = call ptr @llvm_get_type(ptr noundef %55, ptr noundef %56) #8
  %58 = load i64, ptr %7, align 8
  %59 = load ptr, ptr %6, align 8
  store ptr %59, ptr %3, align 8
  %60 = load ptr, ptr %3, align 8
  %61 = load i32, ptr %60, align 8
  store i32 %61, ptr %4, align 4
  %62 = load i32, ptr %4, align 4
  %63 = icmp eq i32 %62, 31
  br i1 %63, label %64, label %69

64:                                               ; preds = %44
  %65 = load ptr, ptr %3, align 8
  %66 = getelementptr inbounds %struct.Type_, ptr %65, i32 0, i32 1
  %67 = load ptr, ptr %66, align 8
  %68 = load i32, ptr %67, align 8
  store i32 %68, ptr %4, align 4
  br label %69

69:                                               ; preds = %64, %44
  %70 = load i32, ptr %4, align 4
  %71 = icmp uge i32 %70, 3
  br i1 %71, label %72, label %75

72:                                               ; preds = %69
  %73 = load i32, ptr %4, align 4
  %74 = icmp ule i32 %73, 7
  br label %75

75:                                               ; preds = %72, %69
  %76 = phi i1 [ false, %69 ], [ %74, %72 ]
  %77 = zext i1 %76 to i32
  %78 = call ptr @LLVMConstInt(ptr noundef %57, i64 noundef %58, i32 noundef %77) #8
  %79 = call ptr @LLVMBuildExtractElement(ptr noundef %47, ptr noundef %48, ptr noundef %78, ptr noundef @.str.3) #8
  store ptr %79, ptr %8, align 8
  br label %87

80:                                               ; preds = %34
  %81 = load ptr, ptr %9, align 8
  %82 = getelementptr inbounds %struct.GenContext_, ptr %81, i32 0, i32 8
  %83 = load ptr, ptr %82, align 8
  %84 = load ptr, ptr %10, align 8
  %85 = load i32, ptr %11, align 4
  %86 = call ptr @LLVMBuildExtractValue(ptr noundef %83, ptr noundef %84, i32 noundef %85, ptr noundef @.str.3) #8
  store ptr %86, ptr %8, align 8
  br label %87

87:                                               ; preds = %80, %75
  %88 = load ptr, ptr %8, align 8
  %89 = load ptr, ptr @type_typeid, align 8
  call void @llvm_value_set(ptr noundef %35, ptr noundef %88, ptr noundef %89)
  br label %90

90:                                               ; preds = %87, %18
  ret void
}