; Function Attrs: nounwind uwtable
define internal fastcc void @llvm_emit_type_from_any(ptr noundef %0, ptr noundef %1) unnamed_addr #0 {
  %3 = alloca i32, align 4
  %.val = load i8, ptr %1, align 8
  %4 = and i8 %.val, 31
  %5 = add nsw i8 %4, -1
  %spec.select.i = icmp ult i8 %5, 2
  br i1 %spec.select.i, label %6, label %16

6:                                                ; preds = %2
  store i32 0, ptr %3, align 4
  %7 = getelementptr inbounds i8, ptr %1, i64 16
  %8 = load ptr, ptr %7, align 8
  %9 = load ptr, ptr @type_anyptr, align 8
  %10 = tail call ptr @llvm_get_type(ptr noundef %0, ptr noundef %9) #10
  %11 = getelementptr inbounds i8, ptr %1, i64 4
  %12 = load i32, ptr %11, align 4
  %13 = call ptr @llvm_emit_struct_gep_raw(ptr noundef %0, ptr noundef %8, ptr noundef %10, i32 noundef 1, i32 noundef %12, ptr noundef nonnull %3)
  %14 = load ptr, ptr @type_typeid, align 8
  %15 = load i32, ptr %3, align 4
  tail call void @llvm_value_set_address(ptr noundef nonnull %1, ptr noundef %13, ptr noundef %14, i32 noundef %15) #10
  br label %44

16:                                               ; preds = %2
  %17 = getelementptr inbounds i8, ptr %1, i64 16
  %18 = load ptr, ptr %17, align 8
  %19 = tail call ptr @LLVMTypeOf(ptr noundef %18) #10
  %20 = tail call i32 @LLVMGetTypeKind(ptr noundef %19) #10
  %21 = icmp eq i32 %20, 13
  %22 = getelementptr inbounds i8, ptr %0, i64 64
  %23 = load ptr, ptr %22, align 8
  br i1 %21, label %24, label %40

24:                                               ; preds = %16
  %25 = load ptr, ptr @type_usz, align 8
  %26 = tail call fastcc ptr @type_lowering(ptr noundef %25)
  %27 = tail call ptr @llvm_get_type(ptr noundef %0, ptr noundef %26) #10
  %28 = load i32, ptr %26, align 8
  %29 = icmp eq i32 %28, 31
  br i1 %29, label %30, label %34

30:                                               ; preds = %24
  %31 = getelementptr inbounds i8, ptr %26, i64 8
  %32 = load ptr, ptr %31, align 8
  %33 = load i32, ptr %32, align 8
  br label %34

34:                                               ; preds = %30, %24
  %.0 = phi i32 [ %33, %30 ], [ %28, %24 ]
  %35 = add i32 %.0, -3
  %36 = icmp ult i32 %35, 5
  %37 = zext i1 %36 to i32
  %38 = tail call ptr @LLVMConstInt(ptr noundef %27, i64 noundef 1, i32 noundef %37) #10
  %39 = tail call ptr @LLVMBuildExtractElement(ptr noundef %23, ptr noundef %18, ptr noundef %38, ptr noundef nonnull @.str.3) #10
  br label %42

40:                                               ; preds = %16
  %41 = tail call ptr @LLVMBuildExtractValue(ptr noundef %23, ptr noundef %18, i32 noundef 1, ptr noundef nonnull @.str.3) #10
  br label %42

42:                                               ; preds = %40, %34
  %.028 = phi ptr [ %39, %34 ], [ %41, %40 ]
  %43 = load ptr, ptr @type_typeid, align 8
  tail call void @llvm_value_set(ptr noundef nonnull %1, ptr noundef %.028, ptr noundef %43) #10
  br label %44

44:                                               ; preds = %42, %6
  ret void
}